target datalayout = "e-m:e-p270:32:32-p271:32:32-p272:64:64-i64:64-i128:128-f80:128-n8:16:32:64-S128"
target triple = "x86_64-pc-linux-gnu"

%struct.luaL_Buffer = type { ptr, i64, i64, ptr, %union.anon }
%union.anon = type { double, [1016 x i8] }
%struct._IO_FILE = type { i32, ptr, ptr, ptr, ptr, ptr, ptr, ptr, ptr, ptr, ptr, ptr, ptr, ptr, i32, i32, i64, i16, i8, [1 x i8], ptr, i64, ptr, ptr, ptr, ptr, i64, i32, [20 x i8] }

; Function Attrs: inlinehint nounwind uwtable
define available_externally i32 @getc_unlocked(ptr noundef %0) #6 {
  %2 = alloca ptr, align 8
  store ptr %0, ptr %2, align 8, !tbaa !9
  %3 = load ptr, ptr %2, align 8, !tbaa !9
  %4 = getelementptr inbounds nuw %struct._IO_FILE, ptr %3, i32 0, i32 1
  %5 = load ptr, ptr %4, align 8, !tbaa !38
  %6 = load ptr, ptr %2, align 8, !tbaa !9
  %7 = getelementptr inbounds nuw %struct._IO_FILE, ptr %6, i32 0, i32 2
  %8 = load ptr, ptr %7, align 8, !tbaa !43
  %9 = icmp uge ptr %5, %8
  %10 = zext i1 %9 to i32
  %11 = sext i32 %10 to i64
  %12 = call i64 @llvm.expect.i64(i64 %11, i64 0)
  %13 = icmp ne i64 %12, 0
  br i1 %13, label %14, label %17

14:                                               ; preds = %1
  %15 = load ptr, ptr %2, align 8, !tbaa !9
  %16 = call i32 @__uflow(ptr noundef %15)
  br label %24

17:                                               ; preds = %1
  %18 = load ptr, ptr %2, align 8, !tbaa !9
  %19 = getelementptr inbounds nuw %struct._IO_FILE, ptr %18, i32 0, i32 1
  %20 = load ptr, ptr %19, align 8, !tbaa !38
  %21 = getelementptr inbounds nuw i8, ptr %20, i32 1
  store ptr %21, ptr %19, align 8, !tbaa !38
  %22 = load i8, ptr %20, align 1, !tbaa !20
  %23 = zext i8 %22 to i32
  br label %24

24:                                               ; preds = %17, %14
  %25 = phi i32 [ %16, %14 ], [ %23, %17 ]
  ret i32 %25
}

; Function Attrs: nounwind uwtable
define internal i32 @read_line(ptr noundef %0, ptr noundef %1, i32 noundef %2) #0 {
  %4 = alloca ptr, align 8
  %5 = alloca ptr, align 8
  %6 = alloca i32, align 4
  %7 = alloca %struct.luaL_Buffer, align 8
  %8 = alloca i32, align 4
  %9 = alloca ptr, align 8
  %10 = alloca i32, align 4
  store ptr %0, ptr %4, align 8, !tbaa !4
  store ptr %1, ptr %5, align 8, !tbaa !9
  store i32 %2, ptr %6, align 4, !tbaa !18
  call void @llvm.lifetime.start.p0(i64 1056, ptr %7) #8
  call void @llvm.lifetime.start.p0(i64 4, ptr %8) #8
  %11 = load ptr, ptr %4, align 8, !tbaa !4
  call void @luaL_buffinit(ptr noundef %11, ptr noundef %7)
  br label %12

12:                                               ; preds = %48, %3
  call void @llvm.lifetime.start.p0(i64 8, ptr %9) #8
  %13 = call ptr @luaL_prepbuffsize(ptr noundef %7, i64 noundef 1024)
  store ptr %13, ptr %9, align 8, !tbaa !11
  call void @llvm.lifetime.start.p0(i64 4, ptr %10) #8
  store i32 0, ptr %10, align 4, !tbaa !18
  %14 = load ptr, ptr %5, align 8, !tbaa !9
  call void @flockfile(ptr noundef %14) #8
  br label %15

15:                                               ; preds = %27, %12
  %16 = load i32, ptr %10, align 4, !tbaa !18
  %17 = icmp ult i32 %16, 1024
  br i1 %17, label %18, label %25

18:                                               ; preds = %15
  %19 = load ptr, ptr %5, align 8, !tbaa !9
  %20 = call i32 @getc_unlocked(ptr noundef %19)
  store i32 %20, ptr %8, align 4, !tbaa !18
  %21 = icmp ne i32 %20, -1
  br i1 %21, label %22, label %25

22:                                               ; preds = %18
  %23 = load i32, ptr %8, align 4, !tbaa !18
  %24 = icmp ne i32 %23, 10
  br label %25

25:                                               ; preds = %22, %18, %15
  %26 = phi i1 [ false, %18 ], [ false, %15 ], [ %24, %22 ]
  br i1 %26, label %27, label %35

27:                                               ; preds = %25
  %28 = load i32, ptr %8, align 4, !tbaa !18
  %29 = trunc i32 %28 to i8
  %30 = load ptr, ptr %9, align 8, !tbaa !11
  %31 = load i32, ptr %10, align 4, !tbaa !18
  %32 = add i32 %31, 1
  store i32 %32, ptr %10, align 4, !tbaa !18
  %33 = zext i32 %31 to i64
  %34 = getelementptr inbounds nuw i8, ptr %30, i64 %33
  store i8 %29, ptr %34, align 1, !tbaa !20
  br label %15

35:                                               ; preds = %25
  %36 = load ptr, ptr %5, align 8, !tbaa !9
  call void @funlockfile(ptr noundef %36) #8
  %37 = load i32, ptr %10, align 4, !tbaa !18
  %38 = zext i32 %37 to i64
  %39 = getelementptr inbounds nuw %struct.luaL_Buffer, ptr %7, i32 0, i32 2
  %40 = load i64, ptr %39, align 8, !tbaa !24
  %41 = add i64 %40, %38
  store i64 %41, ptr %39, align 8, !tbaa !24
  call void @llvm.lifetime.end.p0(i64 4, ptr %10) #8
  call void @llvm.lifetime.end.p0(i64 8, ptr %9) #8
  br label %42

42:                                               ; preds = %35
  %43 = load i32, ptr %8, align 4, !tbaa !18
  %44 = icmp ne i32 %43, -1
  br i1 %44, label %45, label %48

45:                                               ; preds = %42
  %46 = load i32, ptr %8, align 4, !tbaa !18
  %47 = icmp ne i32 %46, 10
  br label %48

48:                                               ; preds = %45, %42
  %49 = phi i1 [ false, %42 ], [ %47, %45 ]
  br i1 %49, label %12, label %50

50:                                               ; preds = %48
  %51 = load i32, ptr %6, align 4, !tbaa !18
  %52 = icmp ne i32 %51, 0
  br i1 %52, label %71, label %53

53:                                               ; preds = %50
  %54 = load i32, ptr %8, align 4, !tbaa !18
  %55 = icmp eq i32 %54, 10
  br i1 %55, label %56, label %71

56:                                               ; preds = %53
  %57 = getelementptr inbounds nuw %struct.luaL_Buffer, ptr %7, i32 0, i32 2
  %58 = load i64, ptr %57, align 8, !tbaa !24
  %59 = getelementptr inbounds nuw %struct.luaL_Buffer, ptr %7, i32 0, i32 1
  %60 = load i64, ptr %59, align 8, !tbaa !26
  %61 = icmp ult i64 %58, %60
  br i1 %61, label %64, label %62

62:                                               ; preds = %56
  %63 = call ptr @luaL_prepbuffsize(ptr noundef %7, i64 noundef 1)
  br label %64

64:                                               ; preds = %62, %56
  %65 = getelementptr inbounds nuw %struct.luaL_Buffer, ptr %7, i32 0, i32 0
  %66 = load ptr, ptr %65, align 8, !tbaa !27
  %67 = getelementptr inbounds nuw %struct.luaL_Buffer, ptr %7, i32 0, i32 2
  %68 = load i64, ptr %67, align 8, !tbaa !24
  %69 = add i64 %68, 1
  store i64 %69, ptr %67, align 8, !tbaa !24
  %70 = getelementptr inbounds nuw i8, ptr %66, i64 %68
  store i8 10, ptr %70, align 1, !tbaa !20
  br label %71

71:                                               ; preds = %64, %53, %50
  call void @luaL_pushresult(ptr noundef %7)
  %72 = load i32, ptr %8, align 4, !tbaa !18
  %73 = icmp eq i32 %72, 10
  br i1 %73, label %78, label %74

74:                                               ; preds = %71
  %75 = load ptr, ptr %4, align 8, !tbaa !4
  %76 = call i64 @lua_rawlen(ptr noundef %75, i32 noundef -1)
  %77 = icmp ugt i64 %76, 0
  br label %78

78:                                               ; preds = %74, %71
  %79 = phi i1 [ true, %71 ], [ %77, %74 ]
  %80 = zext i1 %79 to i32
  call void @llvm.lifetime.end.p0(i64 4, ptr %8) #8
  call void @llvm.lifetime.end.p0(i64 1056, ptr %7) #8
  ret i32 %80
}