; Function Attrs: nounwind uwtable
define internal fastcc range(i32 0, 2) i32 @read_line(ptr noundef %0, ptr noundef %1, i32 noundef range(i32 0, 2) %2) unnamed_addr #0 {
  %4 = alloca %struct.luaL_Buffer, align 8
  call void @llvm.lifetime.start.p0(i64 1056, ptr nonnull %4) #9
  call void @luaL_buffinit(ptr noundef %0, ptr noundef nonnull %4) #9
  %5 = getelementptr inbounds nuw i8, ptr %1, i64 8
  %6 = getelementptr inbounds nuw i8, ptr %1, i64 16
  %7 = getelementptr inbounds nuw i8, ptr %4, i64 16
  br label %8

8:                                                ; preds = %.critedge, %3
  %9 = call ptr @luaL_prepbuffsize(ptr noundef nonnull %4, i64 noundef 1024) #9
  call void @flockfile(ptr noundef %1) #9
  br label %10

10:                                               ; preds = %8, %20
  %indvars.iv = phi i64 [ 0, %8 ], [ %indvars.iv.next, %20 ]
  %11 = load ptr, ptr %5, align 8, !tbaa !29
  %12 = load ptr, ptr %6, align 8, !tbaa !35
  %.not.i = icmp ult ptr %11, %12
  br i1 %.not.i, label %15, label %13, !prof !18

13:                                               ; preds = %10
  %14 = call i32 @__uflow(ptr noundef nonnull %1) #9
  br label %getc_unlocked.exit

15:                                               ; preds = %10
  %16 = getelementptr inbounds nuw i8, ptr %11, i64 1
  store ptr %16, ptr %5, align 8, !tbaa !29
  %17 = load i8, ptr %11, align 1, !tbaa !16
  %18 = zext i8 %17 to i32
  br label %getc_unlocked.exit

getc_unlocked.exit:                               ; preds = %13, %15
  %19 = phi i32 [ %14, %13 ], [ %18, %15 ]
  switch i32 %19, label %20 [
    i32 -1, label %.critedge
    i32 10, label %.critedge
  ]

20:                                               ; preds = %getc_unlocked.exit
  %21 = trunc i32 %19 to i8
  %indvars.iv.next = add nuw nsw i64 %indvars.iv, 1
  %22 = getelementptr inbounds nuw i8, ptr %9, i64 %indvars.iv
  store i8 %21, ptr %22, align 1, !tbaa !16
  %exitcond.not = icmp eq i64 %indvars.iv.next, 1024
  br i1 %exitcond.not, label %.critedge, label %10

.critedge:                                        ; preds = %getc_unlocked.exit, %getc_unlocked.exit, %20
  %.0.lcssa = phi i64 [ %indvars.iv, %getc_unlocked.exit ], [ %indvars.iv, %getc_unlocked.exit ], [ 1024, %20 ]
  call void @funlockfile(ptr noundef nonnull %1) #9
  %23 = and i64 %.0.lcssa, 4294967295
  %24 = load i64, ptr %7, align 8, !tbaa !19
  %25 = add i64 %24, %23
  store i64 %25, ptr %7, align 8, !tbaa !19
  switch i32 %19, label %8 [
    i32 -1, label %26
    i32 10, label %26
  ]

26:                                               ; preds = %.critedge, %.critedge
  %27 = icmp eq i32 %2, 0
  %28 = icmp eq i32 %19, 10
  %or.cond = and i1 %27, %28
  br i1 %or.cond, label %29, label %39

29:                                               ; preds = %26
  %30 = getelementptr inbounds nuw i8, ptr %4, i64 8
  %31 = load i64, ptr %30, align 8, !tbaa !40
  %32 = icmp ult i64 %25, %31
  br i1 %32, label %.thread, label %33

33:                                               ; preds = %29
  %34 = call ptr @luaL_prepbuffsize(ptr noundef nonnull %4, i64 noundef 1) #9
  %.pre = load i64, ptr %7, align 8, !tbaa !19
  br label %.thread

.thread:                                          ; preds = %29, %33
  %35 = phi i64 [ %25, %29 ], [ %.pre, %33 ]
  %36 = load ptr, ptr %4, align 8, !tbaa !41
  %37 = add i64 %35, 1
  store i64 %37, ptr %7, align 8, !tbaa !19
  %38 = getelementptr inbounds nuw i8, ptr %36, i64 %35
  store i8 10, ptr %38, align 1, !tbaa !16
  call void @luaL_pushresult(ptr noundef nonnull %4) #9
  br label %44

39:                                               ; preds = %26
  call void @luaL_pushresult(ptr noundef nonnull %4) #9
  br i1 %28, label %44, label %40

40:                                               ; preds = %39
  %41 = call i64 @lua_rawlen(ptr noundef %0, i32 noundef -1) #9
  %42 = icmp ne i64 %41, 0
  %43 = zext i1 %42 to i32
  br label %44

44:                                               ; preds = %.thread, %40, %39
  %45 = phi i32 [ 1, %39 ], [ %43, %40 ], [ 1, %.thread ]
  call void @llvm.lifetime.end.p0(i64 1056, ptr nonnull %4) #9
  ret i32 %45
}